; Function Attrs: nounwind uwtable
define void @Llb_ManGroupCreate_rec(ptr noundef readonly captures(none) %0, ptr noundef %1, ptr noundef captures(none) %2) local_unnamed_addr #3 {
  %4 = getelementptr i8, ptr %0, i64 312
  %.val25 = load i32, ptr %4, align 8, !tbaa !28
  %5 = getelementptr i8, ptr %1, i64 32
  %.val1626 = load i32, ptr %5, align 8, !tbaa !39
  %.not27 = icmp eq i32 %.val1626, %.val25
  br i1 %.not27, label %.loopexit, label %.lr.ph

.lr.ph:                                           ; preds = %3, %tailrecurse
  %6 = phi ptr [ %51, %tailrecurse ], [ %5, %3 ]
  %.val29 = phi i32 [ %.val, %tailrecurse ], [ %.val25, %3 ]
  %.tr2228 = phi ptr [ %50, %tailrecurse ], [ %1, %3 ]
  store i32 %.val29, ptr %6, align 8, !tbaa !39
  %7 = getelementptr i8, ptr %.tr2228, i64 24
  %.val18 = load i64, ptr %7, align 8
  %8 = and i64 %.val18, 7
  %.not21 = icmp eq i64 %8, 1
  br i1 %.not21, label %.loopexit, label %9

9:                                                ; preds = %.lr.ph
  %10 = and i64 %.val18, 16
  %.not15 = icmp eq i64 %10, 0
  br i1 %.not15, label %tailrecurse, label %11

11:                                               ; preds = %9
  %12 = getelementptr inbounds nuw i8, ptr %2, i64 4
  %13 = load i32, ptr %12, align 4, !tbaa !12
  %14 = load i32, ptr %2, align 8, !tbaa !14
  %15 = icmp eq i32 %13, %14
  br i1 %15, label %16, label %.Vec_PtrGrow.exit11_crit_edge.i

.Vec_PtrGrow.exit11_crit_edge.i:                  ; preds = %11
  %.phi.trans.insert.i = getelementptr inbounds nuw i8, ptr %2, i64 8
  %.pre.i = load ptr, ptr %.phi.trans.insert.i, align 8, !tbaa !15
  br label %Vec_PtrPush.exit

16:                                               ; preds = %11
  %17 = icmp slt i32 %13, 16
  br i1 %17, label %18, label %26

18:                                               ; preds = %16
  %19 = getelementptr inbounds nuw i8, ptr %2, i64 8
  %20 = load ptr, ptr %19, align 8, !tbaa !15
  %.not9.i.i = icmp eq ptr %20, null
  br i1 %.not9.i.i, label %23, label %21

21:                                               ; preds = %18
  %22 = tail call dereferenceable_or_null(128) ptr @realloc(ptr noundef nonnull %20, i64 noundef 128) #15
  br label %Vec_PtrGrow.exit.i

23:                                               ; preds = %18
  %24 = tail call noalias dereferenceable_or_null(128) ptr @malloc(i64 noundef 128) #14
  br label %Vec_PtrGrow.exit.i

Vec_PtrGrow.exit.i:                               ; preds = %23, %21
  %25 = phi ptr [ %22, %21 ], [ %24, %23 ]
  store ptr %25, ptr %19, align 8, !tbaa !15
  store i32 16, ptr %2, align 8, !tbaa !14
  br label %Vec_PtrPush.exit

26:                                               ; preds = %16
  %27 = shl nuw nsw i32 %13, 1
  %28 = getelementptr inbounds nuw i8, ptr %2, i64 8
  %29 = load ptr, ptr %28, align 8, !tbaa !15
  %.not9.i10.i = icmp eq ptr %29, null
  %30 = zext nneg i32 %27 to i64
  %31 = shl nuw nsw i64 %30, 3
  br i1 %.not9.i10.i, label %34, label %32

32:                                               ; preds = %26
  %33 = tail call ptr @realloc(ptr noundef nonnull %29, i64 noundef %31) #15
  br label %36

34:                                               ; preds = %26
  %35 = tail call noalias ptr @malloc(i64 noundef %31) #14
  br label %36

36:                                               ; preds = %34, %32
  %37 = phi ptr [ %33, %32 ], [ %35, %34 ]
  store ptr %37, ptr %28, align 8, !tbaa !15
  store i32 %27, ptr %2, align 8, !tbaa !14
  br label %Vec_PtrPush.exit

Vec_PtrPush.exit:                                 ; preds = %.Vec_PtrGrow.exit11_crit_edge.i, %Vec_PtrGrow.exit.i, %36
  %38 = phi ptr [ %.pre.i, %.Vec_PtrGrow.exit11_crit_edge.i ], [ %37, %36 ], [ %25, %Vec_PtrGrow.exit.i ]
  %39 = load i32, ptr %12, align 4, !tbaa !12
  %40 = add nsw i32 %39, 1
  store i32 %40, ptr %12, align 4, !tbaa !12
  %41 = sext i32 %39 to i64
  %42 = getelementptr inbounds ptr, ptr %38, i64 %41
  store ptr %.tr2228, ptr %42, align 8, !tbaa !26
  br label %.loopexit

tailrecurse:                                      ; preds = %9
  %43 = getelementptr i8, ptr %.tr2228, i64 8
  %.val19 = load ptr, ptr %43, align 8, !tbaa !40
  %44 = ptrtoint ptr %.val19 to i64
  %45 = and i64 %44, -2
  %46 = inttoptr i64 %45 to ptr
  tail call void @Llb_ManGroupCreate_rec(ptr noundef nonnull %0, ptr noundef %46, ptr noundef %2)
  %47 = getelementptr i8, ptr %.tr2228, i64 16
  %.val20 = load ptr, ptr %47, align 8, !tbaa !41
  %48 = ptrtoint ptr %.val20 to i64
  %49 = and i64 %48, -2
  %50 = inttoptr i64 %49 to ptr
  %.val = load i32, ptr %4, align 8, !tbaa !28
  %51 = getelementptr i8, ptr %50, i64 32
  %.val16 = load i32, ptr %51, align 8, !tbaa !39
  %.not = icmp eq i32 %.val16, %.val
  br i1 %.not, label %.loopexit, label %.lr.ph

.loopexit:                                        ; preds = %tailrecurse, %.lr.ph, %3, %Vec_PtrPush.exit
  ret void
}